target datalayout = "e-m:e-p270:32:32-p271:32:32-p272:64:64-i64:64-i128:128-f80:128-n8:16:32:64-S128"
target triple = "x86_64-pc-linux-gnu"

%struct.ForEachState = type { ptr, i32 }
%struct.ExplainStmt = type { i32, ptr, ptr }
%struct.List = type { i32, i32, i32, ptr, [0 x %union.ListCell] }
%union.ListCell = type { ptr }
%struct.DefElem = type { i32, ptr, ptr, ptr, i32, i32 }

@.str.17 = private unnamed_addr constant [7 x i8] c"format\00", align 1
@.str.18 = private unnamed_addr constant [4 x i8] c"xml\00", align 1
@.str.19 = private unnamed_addr constant [5 x i8] c"json\00", align 1
@.str.28 = private unnamed_addr constant [11 x i8] c"QUERY PLAN\00", align 1

; Function Attrs: nounwind uwtable
define dso_local ptr @ExplainResultDesc(ptr noundef %0) #0 {
  %2 = alloca ptr, align 8
  %3 = alloca ptr, align 8
  %4 = alloca ptr, align 8
  %5 = alloca i32, align 4
  %6 = alloca %struct.ForEachState, align 8
  %7 = alloca ptr, align 8
  %8 = alloca ptr, align 8
  store ptr %0, ptr %2, align 8
  call void @llvm.lifetime.start.p0(i64 8, ptr %3) #10
  call void @llvm.lifetime.start.p0(i64 8, ptr %4) #10
  call void @llvm.lifetime.start.p0(i64 4, ptr %5) #10
  store i32 25, ptr %5, align 4
  call void @llvm.lifetime.start.p0(i64 16, ptr %6) #10
  %9 = getelementptr inbounds nuw %struct.ForEachState, ptr %6, i32 0, i32 0
  %10 = load ptr, ptr %2, align 8
  %11 = getelementptr inbounds nuw %struct.ExplainStmt, ptr %10, i32 0, i32 2
  %12 = load ptr, ptr %11, align 8
  store ptr %12, ptr %9, align 8
  %13 = getelementptr inbounds nuw %struct.ForEachState, ptr %6, i32 0, i32 1
  store i32 0, ptr %13, align 8
  %14 = getelementptr i8, ptr %6, i64 12
  call void @llvm.memset.p0.i64(ptr align 4 %14, i8 0, i64 4, i1 false)
  br label %15

15:                                               ; preds = %65, %1
  %16 = getelementptr inbounds nuw %struct.ForEachState, ptr %6, i32 0, i32 0
  %17 = load ptr, ptr %16, align 8
  %18 = icmp ne ptr %17, null
  br i1 %18, label %19, label %36

19:                                               ; preds = %15
  %20 = getelementptr inbounds nuw %struct.ForEachState, ptr %6, i32 0, i32 1
  %21 = load i32, ptr %20, align 8
  %22 = getelementptr inbounds nuw %struct.ForEachState, ptr %6, i32 0, i32 0
  %23 = load ptr, ptr %22, align 8
  %24 = getelementptr inbounds nuw %struct.List, ptr %23, i32 0, i32 1
  %25 = load i32, ptr %24, align 4
  %26 = icmp slt i32 %21, %25
  br i1 %26, label %27, label %36

27:                                               ; preds = %19
  %28 = getelementptr inbounds nuw %struct.ForEachState, ptr %6, i32 0, i32 0
  %29 = load ptr, ptr %28, align 8
  %30 = getelementptr inbounds nuw %struct.List, ptr %29, i32 0, i32 3
  %31 = load ptr, ptr %30, align 8
  %32 = getelementptr inbounds nuw %struct.ForEachState, ptr %6, i32 0, i32 1
  %33 = load i32, ptr %32, align 8
  %34 = sext i32 %33 to i64
  %35 = getelementptr inbounds %union.ListCell, ptr %31, i64 %34
  store ptr %35, ptr %4, align 8
  br label %37

36:                                               ; preds = %19, %15
  store ptr null, ptr %4, align 8
  br label %37

37:                                               ; preds = %36, %27
  %38 = phi i32 [ 1, %27 ], [ 0, %36 ]
  %39 = icmp ne i32 %38, 0
  br i1 %39, label %41, label %40

40:                                               ; preds = %37
  call void @llvm.lifetime.end.p0(i64 16, ptr %6) #10
  br label %69

41:                                               ; preds = %37
  call void @llvm.lifetime.start.p0(i64 8, ptr %7) #10
  %42 = load ptr, ptr %4, align 8
  %43 = load ptr, ptr %42, align 8
  store ptr %43, ptr %7, align 8
  %44 = load ptr, ptr %7, align 8
  %45 = getelementptr inbounds nuw %struct.DefElem, ptr %44, i32 0, i32 2
  %46 = load ptr, ptr %45, align 8
  %47 = call i32 @strcmp(ptr noundef %46, ptr noundef @.str.17) #11
  %48 = icmp eq i32 %47, 0
  br i1 %48, label %49, label %64

49:                                               ; preds = %41
  call void @llvm.lifetime.start.p0(i64 8, ptr %8) #10
  %50 = load ptr, ptr %7, align 8
  %51 = call ptr @defGetString(ptr noundef %50)
  store ptr %51, ptr %8, align 8
  %52 = load ptr, ptr %8, align 8
  %53 = call i32 @strcmp(ptr noundef %52, ptr noundef @.str.18) #11
  %54 = icmp eq i32 %53, 0
  br i1 %54, label %55, label %56

55:                                               ; preds = %49
  store i32 142, ptr %5, align 4
  br label %63

56:                                               ; preds = %49
  %57 = load ptr, ptr %8, align 8
  %58 = call i32 @strcmp(ptr noundef %57, ptr noundef @.str.19) #11
  %59 = icmp eq i32 %58, 0
  br i1 %59, label %60, label %61

60:                                               ; preds = %56
  store i32 114, ptr %5, align 4
  br label %62

61:                                               ; preds = %56
  store i32 25, ptr %5, align 4
  br label %62

62:                                               ; preds = %61, %60
  br label %63

63:                                               ; preds = %62, %55
  call void @llvm.lifetime.end.p0(i64 8, ptr %8) #10
  br label %64

64:                                               ; preds = %63, %41
  call void @llvm.lifetime.end.p0(i64 8, ptr %7) #10
  br label %65

65:                                               ; preds = %64
  %66 = getelementptr inbounds nuw %struct.ForEachState, ptr %6, i32 0, i32 1
  %67 = load i32, ptr %66, align 8
  %68 = add i32 %67, 1
  store i32 %68, ptr %66, align 8
  br label %15, !llvm.loop !9

69:                                               ; preds = %40
  %70 = call ptr @CreateTemplateTupleDesc(i32 noundef 1)
  store ptr %70, ptr %3, align 8
  %71 = load ptr, ptr %3, align 8
  %72 = load i32, ptr %5, align 4
  call void @TupleDescInitEntry(ptr noundef %71, i16 noundef signext 1, ptr noundef @.str.28, i32 noundef %72, i32 noundef -1, i32 noundef 0)
  %73 = load ptr, ptr %3, align 8
  call void @llvm.lifetime.end.p0(i64 4, ptr %5) #10
  call void @llvm.lifetime.end.p0(i64 8, ptr %4) #10
  call void @llvm.lifetime.end.p0(i64 8, ptr %3) #10
  ret ptr %73
}