; Function Attrs: nounwind uwtable
define dso_local noundef ptr @ExplainResultDesc(ptr noundef readonly captures(none) %0) local_unnamed_addr #0 {
  %2 = getelementptr inbounds nuw i8, ptr %0, i64 16
  %3 = load ptr, ptr %2, align 8
  %4 = getelementptr inbounds nuw i8, ptr %3, i64 4
  %.not = icmp eq ptr %3, null
  br i1 %.not, label %._crit_edge, label %.lr.ph

.lr.ph:                                           ; preds = %1
  %5 = getelementptr inbounds nuw i8, ptr %3, i64 16
  %6 = load i32, ptr %4, align 4
  %7 = icmp sgt i32 %6, 0
  br i1 %7, label %.lr.ph24, label %._crit_edge

._crit_edge:                                      ; preds = %23, %.lr.ph, %1
  %.012.lcssa = phi i32 [ 25, %1 ], [ 25, %.lr.ph ], [ %.1, %23 ]
  %8 = tail call ptr @CreateTemplateTupleDesc(i32 noundef 1) #13
  tail call void @TupleDescInitEntry(ptr noundef %8, i16 noundef signext 1, ptr noundef nonnull @.str.28, i32 noundef %.012.lcssa, i32 noundef -1, i32 noundef 0) #13
  ret ptr %8

.lr.ph24:                                         ; preds = %.lr.ph, %23
  %indvars.iv = phi i64 [ %indvars.iv.next, %23 ], [ 0, %.lr.ph ]
  %.0121822 = phi i32 [ %.1, %23 ], [ 25, %.lr.ph ]
  %9 = load ptr, ptr %5, align 8
  %10 = getelementptr inbounds nuw %union.ListCell, ptr %9, i64 %indvars.iv
  %11 = load ptr, ptr %10, align 8
  %12 = getelementptr inbounds nuw i8, ptr %11, i64 16
  %13 = load ptr, ptr %12, align 8
  %14 = tail call i32 @strcmp(ptr noundef nonnull dereferenceable(1) %13, ptr noundef nonnull dereferenceable(7) @.str.17) #14
  %15 = icmp eq i32 %14, 0
  br i1 %15, label %16, label %23

16:                                               ; preds = %.lr.ph24
  %17 = tail call ptr @defGetString(ptr noundef nonnull %11) #13
  %18 = tail call i32 @strcmp(ptr noundef nonnull dereferenceable(1) %17, ptr noundef nonnull dereferenceable(4) @.str.18) #14
  %19 = icmp eq i32 %18, 0
  br i1 %19, label %23, label %20

20:                                               ; preds = %16
  %21 = tail call i32 @strcmp(ptr noundef nonnull dereferenceable(1) %17, ptr noundef nonnull dereferenceable(5) @.str.19) #14
  %22 = icmp eq i32 %21, 0
  %. = select i1 %22, i32 114, i32 25
  br label %23

23:                                               ; preds = %16, %20, %.lr.ph24
  %.1 = phi i32 [ %.0121822, %.lr.ph24 ], [ 142, %16 ], [ %., %20 ]
  %indvars.iv.next = add nuw nsw i64 %indvars.iv, 1
  %24 = load i32, ptr %4, align 4
  %25 = sext i32 %24 to i64
  %26 = icmp slt i64 %indvars.iv.next, %25
  br i1 %26, label %.lr.ph24, label %._crit_edge
}